target datalayout = "e-m:e-p270:32:32-p271:32:32-p272:64:64-i64:64-i128:128-f80:128-n8:16:32:64-S128"
target triple = "x86_64-pc-linux-gnu"

%"class.std::basic_ostream" = type { ptr, %"class.std::basic_ios" }
%"class.std::basic_ios" = type { %"class.std::ios_base", ptr, i8, i8, ptr, ptr, ptr, ptr }
%"class.std::ios_base" = type { ptr, i64, i64, i32, i32, i32, ptr, %"struct.std::ios_base::_Words", [8 x %"struct.std::ios_base::_Words"], i32, ptr, %"class.std::locale" }
%"struct.std::ios_base::_Words" = type { ptr, i64 }
%"class.std::locale" = type { ptr }
%"class.cv::CommandLineParser" = type { ptr }
%"class.std::__cxx11::basic_string" = type { %"struct.std::__cxx11::basic_string<char>::_Alloc_hider", i64, %union.anon }
%"struct.std::__cxx11::basic_string<char>::_Alloc_hider" = type { ptr }
%union.anon = type { i64, [8 x i8] }
%"class.std::allocator" = type { i8 }
%class.App = type <{ i8, i8, [6 x i8], double, double, i32, i32, i32, i32, i32, [4 x i8], double, i8, [7 x i8], i64, double, i64, double, %"class.std::__cxx11::basic_string", %"class.std::__cxx11::basic_string", %"class.std::__cxx11::basic_string", i32, i8, [3 x i8] }>

@.str.1 = private unnamed_addr constant [5 x i8] c"help\00", align 1
@_ZTIN2cv9ExceptionE = external constant ptr
@_ZTISt9exception = external constant ptr
@_ZSt4cout = external global %"class.std::basic_ostream", align 8
@.str.2 = private unnamed_addr constant [18 x i8] c"unknown exception\00", align 1
@.str.3 = private unnamed_addr constant [8 x i8] c"error: \00", align 1
@_ZN3AppC1ERN2cv17CommandLineParserE = hidden unnamed_addr alias void (ptr, ptr), ptr @_ZN3AppC2ERN2cv17CommandLineParserE

; Function Attrs: mustprogress norecurse uwtable
define hidden noundef i32 @main(i32 noundef %0, ptr noundef %1) #4 personality ptr @__gxx_personality_v0 {
  %3 = alloca i32, align 4
  %4 = alloca i32, align 4
  %5 = alloca ptr, align 8
  %6 = alloca ptr, align 8
  %7 = alloca %"class.cv::CommandLineParser", align 8
  %8 = alloca %"class.std::__cxx11::basic_string", align 8
  %9 = alloca %"class.std::allocator", align 1
  %10 = alloca ptr, align 8
  %11 = alloca i32, align 4
  %12 = alloca %"class.std::__cxx11::basic_string", align 8
  %13 = alloca %"class.std::allocator", align 1
  %14 = alloca i32, align 4
  %15 = alloca %class.App, align 8
  %16 = alloca ptr, align 8
  %17 = alloca ptr, align 8
  store i32 0, ptr %3, align 4
  store i32 %0, ptr %4, align 4
  store ptr %1, ptr %5, align 8
  store ptr @.str, ptr %6, align 8
  %18 = load i32, ptr %4, align 4
  %19 = load ptr, ptr %5, align 8
  %20 = load ptr, ptr %6, align 8
  call void @_ZNSaIcEC1Ev(ptr noundef nonnull align 1 dereferenceable(1) %9) #3
  invoke void @_ZNSt7__cxx1112basic_stringIcSt11char_traitsIcESaIcEEC1EPKcRKS3_(ptr noundef nonnull align 8 dereferenceable(32) %8, ptr noundef %20, ptr noundef nonnull align 1 dereferenceable(1) %9)
          to label %21 unwind label %28

21:                                               ; preds = %2
  invoke void @_ZN2cv17CommandLineParserC1EiPKPKcRKNSt7__cxx1112basic_stringIcSt11char_traitsIcESaIcEEE(ptr noundef nonnull align 8 dereferenceable(8) %7, i32 noundef %18, ptr noundef %19, ptr noundef nonnull align 8 dereferenceable(32) %8)
          to label %22 unwind label %32

22:                                               ; preds = %21
  call void @_ZNSt7__cxx1112basic_stringIcSt11char_traitsIcESaIcEED1Ev(ptr noundef nonnull align 8 dereferenceable(32) %8) #3
  call void @_ZNSaIcED1Ev(ptr noundef nonnull align 1 dereferenceable(1) %9) #3
  call void @_ZNSaIcEC1Ev(ptr noundef nonnull align 1 dereferenceable(1) %13) #3
  invoke void @_ZNSt7__cxx1112basic_stringIcSt11char_traitsIcESaIcEEC1EPKcRKS3_(ptr noundef nonnull align 8 dereferenceable(32) %12, ptr noundef @.str.1, ptr noundef nonnull align 1 dereferenceable(1) %13)
          to label %23 unwind label %37

23:                                               ; preds = %22
  %24 = invoke noundef zeroext i1 @_ZNK2cv17CommandLineParser3hasERKNSt7__cxx1112basic_stringIcSt11char_traitsIcESaIcEEE(ptr noundef nonnull align 8 dereferenceable(8) %7, ptr noundef nonnull align 8 dereferenceable(32) %12)
          to label %25 unwind label %41

25:                                               ; preds = %23
  call void @_ZNSt7__cxx1112basic_stringIcSt11char_traitsIcESaIcEED1Ev(ptr noundef nonnull align 8 dereferenceable(32) %12) #3
  call void @_ZNSaIcED1Ev(ptr noundef nonnull align 1 dereferenceable(1) %13) #3
  br i1 %24, label %26, label %50

26:                                               ; preds = %25
  invoke void @_ZNK2cv17CommandLineParser12printMessageEv(ptr noundef nonnull align 8 dereferenceable(8) %7)
          to label %27 unwind label %46

27:                                               ; preds = %26
  store i32 0, ptr %3, align 4
  store i32 1, ptr %14, align 4
  br label %124

28:                                               ; preds = %2
  %29 = landingpad { ptr, i32 }
          cleanup
  %30 = extractvalue { ptr, i32 } %29, 0
  store ptr %30, ptr %10, align 8
  %31 = extractvalue { ptr, i32 } %29, 1
  store i32 %31, ptr %11, align 4
  br label %36

32:                                               ; preds = %21
  %33 = landingpad { ptr, i32 }
          cleanup
  %34 = extractvalue { ptr, i32 } %33, 0
  store ptr %34, ptr %10, align 8
  %35 = extractvalue { ptr, i32 } %33, 1
  store i32 %35, ptr %11, align 4
  call void @_ZNSt7__cxx1112basic_stringIcSt11char_traitsIcESaIcEED1Ev(ptr noundef nonnull align 8 dereferenceable(32) %8) #3
  br label %36

36:                                               ; preds = %32, %28
  call void @_ZNSaIcED1Ev(ptr noundef nonnull align 1 dereferenceable(1) %9) #3
  br label %127

37:                                               ; preds = %22
  %38 = landingpad { ptr, i32 }
          cleanup
  %39 = extractvalue { ptr, i32 } %38, 0
  store ptr %39, ptr %10, align 8
  %40 = extractvalue { ptr, i32 } %38, 1
  store i32 %40, ptr %11, align 4
  br label %45

41:                                               ; preds = %23
  %42 = landingpad { ptr, i32 }
          cleanup
  %43 = extractvalue { ptr, i32 } %42, 0
  store ptr %43, ptr %10, align 8
  %44 = extractvalue { ptr, i32 } %42, 1
  store i32 %44, ptr %11, align 4
  call void @_ZNSt7__cxx1112basic_stringIcSt11char_traitsIcESaIcEED1Ev(ptr noundef nonnull align 8 dereferenceable(32) %12) #3
  br label %45

45:                                               ; preds = %41, %37
  call void @_ZNSaIcED1Ev(ptr noundef nonnull align 1 dereferenceable(1) %13) #3
  br label %126

46:                                               ; preds = %50, %26
  %47 = landingpad { ptr, i32 }
          cleanup
  %48 = extractvalue { ptr, i32 } %47, 0
  store ptr %48, ptr %10, align 8
  %49 = extractvalue { ptr, i32 } %47, 1
  store i32 %49, ptr %11, align 4
  br label %126

50:                                               ; preds = %25
  invoke void @_ZN3AppC1ERN2cv17CommandLineParserE(ptr noundef nonnull align 8 dereferenceable(197) %15, ptr noundef nonnull align 8 dereferenceable(8) %7)
          to label %51 unwind label %46

51:                                               ; preds = %50
  invoke void @_ZN3App3runEv(ptr noundef nonnull align 8 dereferenceable(197) %15)
          to label %52 unwind label %53

52:                                               ; preds = %51
  br label %121

53:                                               ; preds = %51
  %54 = landingpad { ptr, i32 }
          catch ptr @_ZTIN2cv9ExceptionE
          catch ptr @_ZTISt9exception
          catch ptr null
  %55 = extractvalue { ptr, i32 } %54, 0
  store ptr %55, ptr %10, align 8
  %56 = extractvalue { ptr, i32 } %54, 1
  store i32 %56, ptr %11, align 4
  br label %57

57:                                               ; preds = %53
  %58 = load i32, ptr %11, align 4
  %59 = call i32 @llvm.eh.typeid.for.p0(ptr @_ZTIN2cv9ExceptionE) #3
  %60 = icmp eq i32 %58, %59
  br i1 %60, label %61, label %75

61:                                               ; preds = %57
  %62 = load ptr, ptr %10, align 8
  %63 = call ptr @__cxa_begin_catch(ptr %62) #3
  store ptr %63, ptr %17, align 8
  %64 = invoke noundef nonnull align 8 dereferenceable(8) ptr @_ZStlsISt11char_traitsIcEERSt13basic_ostreamIcT_ES5_PKc(ptr noundef nonnull align 8 dereferenceable(8) @_ZSt4cout, ptr noundef @.str.3)
          to label %65 unwind label %115

65:                                               ; preds = %61
  %66 = load ptr, ptr %17, align 8
  %67 = load ptr, ptr %66, align 8
  %68 = getelementptr inbounds ptr, ptr %67, i64 2
  %69 = load ptr, ptr %68, align 8
  %70 = call noundef ptr %69(ptr noundef nonnull align 8 dereferenceable(148) %66) #3
  %71 = invoke noundef nonnull align 8 dereferenceable(8) ptr @_ZStlsISt11char_traitsIcEERSt13basic_ostreamIcT_ES5_PKc(ptr noundef nonnull align 8 dereferenceable(8) %64, ptr noundef %70)
          to label %72 unwind label %115

72:                                               ; preds = %65
  %73 = invoke noundef nonnull align 8 dereferenceable(8) ptr @_ZNSolsEPFRSoS_E(ptr noundef nonnull align 8 dereferenceable(8) %71, ptr noundef @_ZSt4endlIcSt11char_traitsIcEERSt13basic_ostreamIT_T0_ES6_)
          to label %74 unwind label %115

74:                                               ; preds = %72
  store i32 1, ptr %3, align 4
  store i32 1, ptr %14, align 4
  invoke void @__cxa_end_catch()
          to label %119 unwind label %104

75:                                               ; preds = %57
  %76 = call i32 @llvm.eh.typeid.for.p0(ptr @_ZTISt9exception) #3
  %77 = icmp eq i32 %58, %76
  br i1 %77, label %78, label %92

78:                                               ; preds = %75
  %79 = load ptr, ptr %10, align 8
  %80 = call ptr @__cxa_begin_catch(ptr %79) #3
  store ptr %80, ptr %16, align 8
  %81 = invoke noundef nonnull align 8 dereferenceable(8) ptr @_ZStlsISt11char_traitsIcEERSt13basic_ostreamIcT_ES5_PKc(ptr noundef nonnull align 8 dereferenceable(8) @_ZSt4cout, ptr noundef @.str.3)
          to label %82 unwind label %109

82:                                               ; preds = %78
  %83 = load ptr, ptr %16, align 8
  %84 = load ptr, ptr %83, align 8
  %85 = getelementptr inbounds ptr, ptr %84, i64 2
  %86 = load ptr, ptr %85, align 8
  %87 = call noundef ptr %86(ptr noundef nonnull align 8 dereferenceable(8) %83) #3
  %88 = invoke noundef nonnull align 8 dereferenceable(8) ptr @_ZStlsISt11char_traitsIcEERSt13basic_ostreamIcT_ES5_PKc(ptr noundef nonnull align 8 dereferenceable(8) %81, ptr noundef %87)
          to label %89 unwind label %109

89:                                               ; preds = %82
  %90 = invoke noundef nonnull align 8 dereferenceable(8) ptr @_ZNSolsEPFRSoS_E(ptr noundef nonnull align 8 dereferenceable(8) %88, ptr noundef @_ZSt4endlIcSt11char_traitsIcEERSt13basic_ostreamIT_T0_ES6_)
          to label %91 unwind label %109

91:                                               ; preds = %89
  store i32 1, ptr %3, align 4
  store i32 1, ptr %14, align 4
  invoke void @__cxa_end_catch()
          to label %113 unwind label %104

92:                                               ; preds = %75
  %93 = load ptr, ptr %10, align 8
  %94 = call ptr @__cxa_begin_catch(ptr %93) #3
  %95 = invoke noundef nonnull align 8 dereferenceable(8) ptr @_ZStlsISt11char_traitsIcEERSt13basic_ostreamIcT_ES5_PKc(ptr noundef nonnull align 8 dereferenceable(8) @_ZSt4cout, ptr noundef @.str.2)
          to label %96 unwind label %99

96:                                               ; preds = %92
  %97 = invoke noundef nonnull align 8 dereferenceable(8) ptr @_ZNSolsEPFRSoS_E(ptr noundef nonnull align 8 dereferenceable(8) %95, ptr noundef @_ZSt4endlIcSt11char_traitsIcEERSt13basic_ostreamIT_T0_ES6_)
          to label %98 unwind label %99

98:                                               ; preds = %96
  store i32 1, ptr %3, align 4
  store i32 1, ptr %14, align 4
  invoke void @__cxa_end_catch()
          to label %103 unwind label %104

99:                                               ; preds = %96, %92
  %100 = landingpad { ptr, i32 }
          cleanup
  %101 = extractvalue { ptr, i32 } %100, 0
  store ptr %101, ptr %10, align 8
  %102 = extractvalue { ptr, i32 } %100, 1
  store i32 %102, ptr %11, align 4
  invoke void @__cxa_end_catch()
          to label %108 unwind label %132

103:                                              ; preds = %98
  br label %122

104:                                              ; preds = %98, %91, %74
  %105 = landingpad { ptr, i32 }
          cleanup
  %106 = extractvalue { ptr, i32 } %105, 0
  store ptr %106, ptr %10, align 8
  %107 = extractvalue { ptr, i32 } %105, 1
  store i32 %107, ptr %11, align 4
  br label %123

108:                                              ; preds = %99
  br label %123

109:                                              ; preds = %89, %82, %78
  %110 = landingpad { ptr, i32 }
          cleanup
  %111 = extractvalue { ptr, i32 } %110, 0
  store ptr %111, ptr %10, align 8
  %112 = extractvalue { ptr, i32 } %110, 1
  store i32 %112, ptr %11, align 4
  invoke void @__cxa_end_catch()
          to label %114 unwind label %132

113:                                              ; preds = %91
  br label %122

114:                                              ; preds = %109
  br label %123

115:                                              ; preds = %72, %65, %61
  %116 = landingpad { ptr, i32 }
          cleanup
  %117 = extractvalue { ptr, i32 } %116, 0
  store ptr %117, ptr %10, align 8
  %118 = extractvalue { ptr, i32 } %116, 1
  store i32 %118, ptr %11, align 4
  invoke void @__cxa_end_catch()
          to label %120 unwind label %132

119:                                              ; preds = %74
  br label %122

120:                                              ; preds = %115
  br label %123

121:                                              ; preds = %52
  store i32 0, ptr %3, align 4
  store i32 1, ptr %14, align 4
  br label %122

122:                                              ; preds = %121, %119, %113, %103
  call void @_ZN3AppD2Ev(ptr noundef nonnull align 8 dereferenceable(197) %15) #3
  br label %124

123:                                              ; preds = %120, %114, %108, %104
  call void @_ZN3AppD2Ev(ptr noundef nonnull align 8 dereferenceable(197) %15) #3
  br label %126

124:                                              ; preds = %122, %27
  call void @_ZN2cv17CommandLineParserD1Ev(ptr noundef nonnull align 8 dereferenceable(8) %7) #3
  %125 = load i32, ptr %3, align 4
  ret i32 %125

126:                                              ; preds = %123, %46, %45
  call void @_ZN2cv17CommandLineParserD1Ev(ptr noundef nonnull align 8 dereferenceable(8) %7) #3
  br label %127

127:                                              ; preds = %126, %36
  %128 = load ptr, ptr %10, align 8
  %129 = load i32, ptr %11, align 4
  %130 = insertvalue { ptr, i32 } poison, ptr %128, 0
  %131 = insertvalue { ptr, i32 } %130, i32 %129, 1
  resume { ptr, i32 } %131

132:                                              ; preds = %115, %109, %99
  %133 = landingpad { ptr, i32 }
          catch ptr null
  %134 = extractvalue { ptr, i32 } %133, 0
  call void @__clang_call_terminate(ptr %134) #13
  unreachable
}