; Function Attrs: mustprogress norecurse uwtable
define hidden noundef range(i32 0, 2) i32 @main(i32 noundef %0, ptr noundef %1) local_unnamed_addr #3 personality ptr @__gxx_personality_v0 {
  %3 = alloca %"class.cv::CommandLineParser", align 8
  %4 = alloca %"class.std::__cxx11::basic_string", align 8
  %5 = alloca %"class.std::allocator", align 1
  %6 = alloca %"class.std::__cxx11::basic_string", align 8
  %7 = alloca %"class.std::allocator", align 1
  %8 = alloca %class.App, align 8
  call void @_ZNSaIcEC1Ev(ptr noundef nonnull align 1 dereferenceable(1) %5) #15
  invoke void @_ZNSt7__cxx1112basic_stringIcSt11char_traitsIcESaIcEEC1EPKcRKS3_(ptr noundef nonnull align 8 dereferenceable(32) %4, ptr noundef nonnull @.str, ptr noundef nonnull align 1 dereferenceable(1) %5)
          to label %9 unwind label %15

9:                                                ; preds = %2
  invoke void @_ZN2cv17CommandLineParserC1EiPKPKcRKNSt7__cxx1112basic_stringIcSt11char_traitsIcESaIcEEE(ptr noundef nonnull align 8 dereferenceable(8) %3, i32 noundef %0, ptr noundef %1, ptr noundef nonnull align 8 dereferenceable(32) %4)
          to label %10 unwind label %17

10:                                               ; preds = %9
  call void @_ZNSt7__cxx1112basic_stringIcSt11char_traitsIcESaIcEED1Ev(ptr noundef nonnull align 8 dereferenceable(32) %4) #15
  call void @_ZNSaIcED1Ev(ptr noundef nonnull align 1 dereferenceable(1) %5) #15
  call void @_ZNSaIcEC1Ev(ptr noundef nonnull align 1 dereferenceable(1) %7) #15
  invoke void @_ZNSt7__cxx1112basic_stringIcSt11char_traitsIcESaIcEEC1EPKcRKS3_(ptr noundef nonnull align 8 dereferenceable(32) %6, ptr noundef nonnull @.str.1, ptr noundef nonnull align 1 dereferenceable(1) %7)
          to label %11 unwind label %20

11:                                               ; preds = %10
  %12 = invoke noundef zeroext i1 @_ZNK2cv17CommandLineParser3hasERKNSt7__cxx1112basic_stringIcSt11char_traitsIcESaIcEEE(ptr noundef nonnull align 8 dereferenceable(8) %3, ptr noundef nonnull align 8 dereferenceable(32) %6)
          to label %13 unwind label %22

13:                                               ; preds = %11
  call void @_ZNSt7__cxx1112basic_stringIcSt11char_traitsIcESaIcEED1Ev(ptr noundef nonnull align 8 dereferenceable(32) %6) #15
  call void @_ZNSaIcED1Ev(ptr noundef nonnull align 1 dereferenceable(1) %7) #15
  br i1 %12, label %14, label %27

14:                                               ; preds = %13
  invoke void @_ZNK2cv17CommandLineParser12printMessageEv(ptr noundef nonnull align 8 dereferenceable(8) %3)
          to label %77 unwind label %25

15:                                               ; preds = %2
  %16 = landingpad { ptr, i32 }
          cleanup
  br label %19

17:                                               ; preds = %9
  %18 = landingpad { ptr, i32 }
          cleanup
  call void @_ZNSt7__cxx1112basic_stringIcSt11char_traitsIcESaIcEED1Ev(ptr noundef nonnull align 8 dereferenceable(32) %4) #15
  br label %19

19:                                               ; preds = %17, %15
  %.pn = phi { ptr, i32 } [ %18, %17 ], [ %16, %15 ]
  call void @_ZNSaIcED1Ev(ptr noundef nonnull align 1 dereferenceable(1) %5) #15
  br label %79

20:                                               ; preds = %10
  %21 = landingpad { ptr, i32 }
          cleanup
  br label %24

22:                                               ; preds = %11
  %23 = landingpad { ptr, i32 }
          cleanup
  call void @_ZNSt7__cxx1112basic_stringIcSt11char_traitsIcESaIcEED1Ev(ptr noundef nonnull align 8 dereferenceable(32) %6) #15
  br label %24

24:                                               ; preds = %22, %20
  %.pn20 = phi { ptr, i32 } [ %23, %22 ], [ %21, %20 ]
  call void @_ZNSaIcED1Ev(ptr noundef nonnull align 1 dereferenceable(1) %7) #15
  br label %78

25:                                               ; preds = %27, %14
  %26 = landingpad { ptr, i32 }
          cleanup
  br label %78

27:                                               ; preds = %13
  invoke void @_ZN3AppC2ERN2cv17CommandLineParserE(ptr noundef nonnull align 8 dereferenceable(197) %8, ptr noundef nonnull align 8 dereferenceable(8) %3)
          to label %28 unwind label %25

28:                                               ; preds = %27
  invoke void @_ZN3App3runEv(ptr noundef nonnull align 8 dereferenceable(197) %8)
          to label %72 unwind label %29

29:                                               ; preds = %28
  %30 = landingpad { ptr, i32 }
          catch ptr @_ZTIN2cv9ExceptionE
          catch ptr @_ZTISt9exception
          catch ptr null
  %31 = extractvalue { ptr, i32 } %30, 0
  %32 = extractvalue { ptr, i32 } %30, 1
  %33 = call i32 @llvm.eh.typeid.for.p0(ptr nonnull @_ZTIN2cv9ExceptionE) #15
  %34 = icmp eq i32 %32, %33
  br i1 %34, label %35, label %46

35:                                               ; preds = %29
  %36 = call ptr @__cxa_begin_catch(ptr %31) #15
  %37 = invoke noundef nonnull align 8 dereferenceable(8) ptr @_ZStlsISt11char_traitsIcEERSt13basic_ostreamIcT_ES5_PKc(ptr noundef nonnull align 8 dereferenceable(8) @_ZSt4cout, ptr noundef nonnull @.str.3)
          to label %38 unwind label %70

38:                                               ; preds = %35
  %39 = load ptr, ptr %36, align 8
  %40 = getelementptr inbounds i8, ptr %39, i64 16
  %41 = load ptr, ptr %40, align 8
  %42 = call noundef ptr %41(ptr noundef nonnull align 8 dereferenceable(148) %36) #15
  %43 = invoke noundef nonnull align 8 dereferenceable(8) ptr @_ZStlsISt11char_traitsIcEERSt13basic_ostreamIcT_ES5_PKc(ptr noundef nonnull align 8 dereferenceable(8) %37, ptr noundef %42)
          to label %44 unwind label %70

44:                                               ; preds = %38
  %45 = invoke noundef nonnull align 8 dereferenceable(8) ptr @_ZNSolsEPFRSoS_E(ptr noundef nonnull align 8 dereferenceable(8) %43, ptr noundef nonnull @_ZSt4endlIcSt11char_traitsIcEERSt13basic_ostreamIT_T0_ES6_)
          to label %.invoke unwind label %70

46:                                               ; preds = %29
  %47 = call i32 @llvm.eh.typeid.for.p0(ptr nonnull @_ZTISt9exception) #15
  %48 = icmp eq i32 %32, %47
  %49 = call ptr @__cxa_begin_catch(ptr %31) #15
  br i1 %48, label %50, label %60

50:                                               ; preds = %46
  %51 = invoke noundef nonnull align 8 dereferenceable(8) ptr @_ZStlsISt11char_traitsIcEERSt13basic_ostreamIcT_ES5_PKc(ptr noundef nonnull align 8 dereferenceable(8) @_ZSt4cout, ptr noundef nonnull @.str.3)
          to label %52 unwind label %68

52:                                               ; preds = %50
  %53 = load ptr, ptr %49, align 8
  %54 = getelementptr inbounds i8, ptr %53, i64 16
  %55 = load ptr, ptr %54, align 8
  %56 = call noundef ptr %55(ptr noundef nonnull align 8 dereferenceable(8) %49) #15
  %57 = invoke noundef nonnull align 8 dereferenceable(8) ptr @_ZStlsISt11char_traitsIcEERSt13basic_ostreamIcT_ES5_PKc(ptr noundef nonnull align 8 dereferenceable(8) %51, ptr noundef %56)
          to label %58 unwind label %68

58:                                               ; preds = %52
  %59 = invoke noundef nonnull align 8 dereferenceable(8) ptr @_ZNSolsEPFRSoS_E(ptr noundef nonnull align 8 dereferenceable(8) %57, ptr noundef nonnull @_ZSt4endlIcSt11char_traitsIcEERSt13basic_ostreamIT_T0_ES6_)
          to label %.invoke unwind label %68

60:                                               ; preds = %46
  %61 = invoke noundef nonnull align 8 dereferenceable(8) ptr @_ZStlsISt11char_traitsIcEERSt13basic_ostreamIcT_ES5_PKc(ptr noundef nonnull align 8 dereferenceable(8) @_ZSt4cout, ptr noundef nonnull @.str.2)
          to label %62 unwind label %64

62:                                               ; preds = %60
  %63 = invoke noundef nonnull align 8 dereferenceable(8) ptr @_ZNSolsEPFRSoS_E(ptr noundef nonnull align 8 dereferenceable(8) %61, ptr noundef nonnull @_ZSt4endlIcSt11char_traitsIcEERSt13basic_ostreamIT_T0_ES6_)
          to label %.invoke unwind label %64

.invoke:                                          ; preds = %62, %58, %44
  invoke void @__cxa_end_catch()
          to label %72 unwind label %66

64:                                               ; preds = %62, %60
  %65 = landingpad { ptr, i32 }
          cleanup
  invoke void @__cxa_end_catch()
          to label %76 unwind label %80

66:                                               ; preds = %.invoke
  %67 = landingpad { ptr, i32 }
          cleanup
  br label %76

68:                                               ; preds = %58, %52, %50
  %69 = landingpad { ptr, i32 }
          cleanup
  invoke void @__cxa_end_catch()
          to label %76 unwind label %80

70:                                               ; preds = %44, %38, %35
  %71 = landingpad { ptr, i32 }
          cleanup
  invoke void @__cxa_end_catch()
          to label %76 unwind label %80

72:                                               ; preds = %.invoke, %28
  %.0 = phi i32 [ 0, %28 ], [ 1, %.invoke ]
  %73 = getelementptr inbounds i8, ptr %8, i64 160
  call void @_ZNSt7__cxx1112basic_stringIcSt11char_traitsIcESaIcEED1Ev(ptr noundef nonnull align 8 dereferenceable(32) %73) #15
  %74 = getelementptr inbounds i8, ptr %8, i64 128
  call void @_ZNSt7__cxx1112basic_stringIcSt11char_traitsIcESaIcEED1Ev(ptr noundef nonnull align 8 dereferenceable(32) %74) #15
  %75 = getelementptr inbounds i8, ptr %8, i64 96
  call void @_ZNSt7__cxx1112basic_stringIcSt11char_traitsIcESaIcEED1Ev(ptr noundef nonnull align 8 dereferenceable(32) %75) #15
  br label %77

76:                                               ; preds = %70, %68, %64, %66
  %.pn22 = phi { ptr, i32 } [ %67, %66 ], [ %71, %70 ], [ %69, %68 ], [ %65, %64 ]
  call void @_ZN3AppD2Ev(ptr noundef nonnull align 8 dereferenceable(197) %8) #15
  br label %78

77:                                               ; preds = %14, %72
  %.1 = phi i32 [ %.0, %72 ], [ 0, %14 ]
  call void @_ZN2cv17CommandLineParserD1Ev(ptr noundef nonnull align 8 dereferenceable(8) %3) #15
  ret i32 %.1

78:                                               ; preds = %76, %25, %24
  %.pn24 = phi { ptr, i32 } [ %26, %25 ], [ %.pn22, %76 ], [ %.pn20, %24 ]
  call void @_ZN2cv17CommandLineParserD1Ev(ptr noundef nonnull align 8 dereferenceable(8) %3) #15
  br label %79

79:                                               ; preds = %78, %19
  %.pn24.pn = phi { ptr, i32 } [ %.pn24, %78 ], [ %.pn, %19 ]
  resume { ptr, i32 } %.pn24.pn

80:                                               ; preds = %70, %68, %64
  %81 = landingpad { ptr, i32 }
          catch ptr null
  %82 = extractvalue { ptr, i32 } %81, 0
  call void @__clang_call_terminate(ptr %82) #16
  unreachable
}